target datalayout = "e-m:e-p270:32:32-p271:32:32-p272:64:64-i64:64-i128:128-f80:128-n8:16:32:64-S128"
target triple = "x86_64-pc-linux-gnu"

%struct.AVFilterLink = type { ptr, ptr, ptr, ptr, i32, i32, i32, i32, %struct.AVRational, i32, i32, i32, %struct.AVChannelLayout, %struct.AVRational, ptr, i32, %struct.AVFilterFormatsConfig, %struct.AVFilterFormatsConfig }
%struct.AVChannelLayout = type { i32, i32, %union.anon.1, ptr }
%union.anon.1 = type { i64 }
%struct.AVRational = type { i32, i32 }
%struct.AVFilterFormatsConfig = type { ptr, ptr, ptr, ptr, ptr }
%struct.AVFilterContext = type { ptr, ptr, ptr, ptr, ptr, i32, ptr, ptr, i32, ptr, ptr, i32, i32, ptr, ptr, ptr, ptr, i32, ptr, i32, i32 }
%struct.EPXContext = type { ptr, i32, ptr }

; Function Attrs: nounwind uwtable
define internal i32 @config_output(ptr noundef %0) #0 {
  %2 = alloca i32, align 4
  %3 = alloca ptr, align 8
  %4 = alloca ptr, align 8
  %5 = alloca ptr, align 8
  %6 = alloca ptr, align 8
  %7 = alloca ptr, align 8
  %8 = alloca i32, align 4
  store ptr %0, ptr %3, align 8, !tbaa !4
  call void @llvm.lifetime.start.p0(i64 8, ptr %4) #4
  %9 = load ptr, ptr %3, align 8, !tbaa !4
  %10 = getelementptr inbounds nuw %struct.AVFilterLink, ptr %9, i32 0, i32 0
  %11 = load ptr, ptr %10, align 8, !tbaa !44
  store ptr %11, ptr %4, align 8, !tbaa !23
  call void @llvm.lifetime.start.p0(i64 8, ptr %5) #4
  %12 = load ptr, ptr %4, align 8, !tbaa !23
  %13 = getelementptr inbounds nuw %struct.AVFilterContext, ptr %12, i32 0, i32 9
  %14 = load ptr, ptr %13, align 8, !tbaa !34
  store ptr %14, ptr %5, align 8, !tbaa !35
  call void @llvm.lifetime.start.p0(i64 8, ptr %6) #4
  %15 = load ptr, ptr %4, align 8, !tbaa !23
  %16 = getelementptr inbounds nuw %struct.AVFilterContext, ptr %15, i32 0, i32 4
  %17 = load ptr, ptr %16, align 8, !tbaa !45
  %18 = getelementptr inbounds ptr, ptr %17, i64 0
  %19 = load ptr, ptr %18, align 8, !tbaa !4
  store ptr %19, ptr %6, align 8, !tbaa !4
  call void @llvm.lifetime.start.p0(i64 8, ptr %7) #4
  %20 = load ptr, ptr %3, align 8, !tbaa !4
  %21 = getelementptr inbounds nuw %struct.AVFilterLink, ptr %20, i32 0, i32 5
  %22 = load i32, ptr %21, align 4, !tbaa !46
  %23 = call ptr @av_pix_fmt_desc_get(i32 noundef %22)
  store ptr %23, ptr %7, align 8, !tbaa !47
  %24 = load ptr, ptr %7, align 8, !tbaa !47
  %25 = icmp ne ptr %24, null
  br i1 %25, label %27, label %26

26:                                               ; preds = %1
  store i32 -558323010, ptr %2, align 4
  store i32 1, ptr %8, align 4
  br label %56

27:                                               ; preds = %1
  %28 = load ptr, ptr %6, align 8, !tbaa !4
  %29 = getelementptr inbounds nuw %struct.AVFilterLink, ptr %28, i32 0, i32 6
  %30 = load i32, ptr %29, align 8, !tbaa !37
  %31 = load ptr, ptr %5, align 8, !tbaa !35
  %32 = getelementptr inbounds nuw %struct.EPXContext, ptr %31, i32 0, i32 1
  %33 = load i32, ptr %32, align 8, !tbaa !49
  %34 = mul nsw i32 %30, %33
  %35 = load ptr, ptr %3, align 8, !tbaa !4
  %36 = getelementptr inbounds nuw %struct.AVFilterLink, ptr %35, i32 0, i32 6
  store i32 %34, ptr %36, align 8, !tbaa !37
  %37 = load ptr, ptr %6, align 8, !tbaa !4
  %38 = getelementptr inbounds nuw %struct.AVFilterLink, ptr %37, i32 0, i32 7
  %39 = load i32, ptr %38, align 4, !tbaa !38
  %40 = load ptr, ptr %5, align 8, !tbaa !35
  %41 = getelementptr inbounds nuw %struct.EPXContext, ptr %40, i32 0, i32 1
  %42 = load i32, ptr %41, align 8, !tbaa !49
  %43 = mul nsw i32 %39, %42
  %44 = load ptr, ptr %3, align 8, !tbaa !4
  %45 = getelementptr inbounds nuw %struct.AVFilterLink, ptr %44, i32 0, i32 7
  store i32 %43, ptr %45, align 4, !tbaa !38
  %46 = load ptr, ptr %5, align 8, !tbaa !35
  %47 = getelementptr inbounds nuw %struct.EPXContext, ptr %46, i32 0, i32 1
  %48 = load i32, ptr %47, align 8, !tbaa !49
  switch i32 %48, label %55 [
    i32 2, label %49
    i32 3, label %52
  ]

49:                                               ; preds = %27
  %50 = load ptr, ptr %5, align 8, !tbaa !35
  %51 = getelementptr inbounds nuw %struct.EPXContext, ptr %50, i32 0, i32 2
  store ptr @epx2_slice, ptr %51, align 8, !tbaa !42
  br label %55

52:                                               ; preds = %27
  %53 = load ptr, ptr %5, align 8, !tbaa !35
  %54 = getelementptr inbounds nuw %struct.EPXContext, ptr %53, i32 0, i32 2
  store ptr @epx3_slice, ptr %54, align 8, !tbaa !42
  br label %55

55:                                               ; preds = %27, %52, %49
  store i32 0, ptr %2, align 4
  store i32 1, ptr %8, align 4
  br label %56

56:                                               ; preds = %55, %26
  call void @llvm.lifetime.end.p0(i64 8, ptr %7) #4
  call void @llvm.lifetime.end.p0(i64 8, ptr %6) #4
  call void @llvm.lifetime.end.p0(i64 8, ptr %5) #4
  call void @llvm.lifetime.end.p0(i64 8, ptr %4) #4
  %57 = load i32, ptr %2, align 4
  ret i32 %57
}