; Function Attrs: nounwind uwtable
define internal range(i32 -558323010, 1) i32 @config_output(ptr noundef captures(none) %0) #0 {
  %2 = load ptr, ptr %0, align 8, !tbaa !41
  %3 = getelementptr inbounds nuw i8, ptr %2, i64 72
  %4 = load ptr, ptr %3, align 8, !tbaa !33
  %5 = getelementptr inbounds nuw i8, ptr %2, i64 32
  %6 = load ptr, ptr %5, align 8, !tbaa !42
  %7 = load ptr, ptr %6, align 8, !tbaa !31
  %8 = getelementptr inbounds nuw i8, ptr %0, i64 36
  %9 = load i32, ptr %8, align 4, !tbaa !43
  %10 = tail call ptr @av_pix_fmt_desc_get(i32 noundef %9) #6
  %.not = icmp eq ptr %10, null
  br i1 %.not, label %24, label %11

11:                                               ; preds = %1
  %12 = getelementptr inbounds nuw i8, ptr %7, i64 40
  %13 = load i32, ptr %12, align 8, !tbaa !34
  %14 = getelementptr inbounds nuw i8, ptr %4, i64 8
  %15 = load i32, ptr %14, align 8, !tbaa !44
  %16 = mul nsw i32 %15, %13
  %17 = getelementptr inbounds nuw i8, ptr %0, i64 40
  store i32 %16, ptr %17, align 8, !tbaa !34
  %18 = getelementptr inbounds nuw i8, ptr %7, i64 44
  %19 = load i32, ptr %18, align 4, !tbaa !35
  %20 = mul nsw i32 %19, %15
  %21 = getelementptr inbounds nuw i8, ptr %0, i64 44
  store i32 %20, ptr %21, align 4, !tbaa !35
  switch i32 %15, label %24 [
    i32 2, label %.sink.split
    i32 3, label %22
  ]

22:                                               ; preds = %11
  br label %.sink.split

.sink.split:                                      ; preds = %11, %22
  %epx2_slice.sink = phi ptr [ @epx3_slice, %22 ], [ @epx2_slice, %11 ]
  %23 = getelementptr inbounds nuw i8, ptr %4, i64 16
  store ptr %epx2_slice.sink, ptr %23, align 8, !tbaa !39
  br label %24

24:                                               ; preds = %.sink.split, %11, %1
  %.0 = phi i32 [ -558323010, %1 ], [ 0, %11 ], [ 0, %.sink.split ]
  ret i32 %.0
}